(dp0
S'N66_tetrahedral'
p1
S'tetrahedral'
p2
sS'Zn_porphyrin_linear'
p3
S'linear'
p4
sS'H3BTB_Yaghi_triangle'
p5
S'triangle'
p6
sS'TIPA_Yaghi_triangle'
p7
S'triangle'
p8
sS'Benzene_hexagonal'
p9
S'hexagonal'
p10
sS'CdGaS_cluster_tetrahedral'
p11
S'tetrahedral'
p12
sS'Biphenyl_rectangle'
p13
S'rectangle'
p14
sS'Benzene_rectangle'
p15
S'rectangle'
p16
sS'Al_mil53_monomer'
p17
S'mil53'
p18
sS'Benzene_linear'
p19
S'linear'
p20
sS'Chrysene_linear'
p21
S'linear'
p22
sS'H3BTE_Yaghi_triangle'
p23
S'triangle'
p24
sS'H3TATB_Yaghi_triangle'
p25
S'triangle'
p26
sS'Triphenyl_linear'
p27
S'linear'
p28
sS'Anthracene_rectangle'
p29
S'rectangle'
p30
sS'ReS_cluster_octahedral'
p31
S'octahedral'
p32
sS'Bicyclooctane_linear'
p33
S'linear'
p34
sS'Benzene_triangle'
p35
S'triangle'
p36
sS'Fluorine_cap'
p37
S'point_cap'
p38
sS'Betabinaphtol_linear'
p39
S'linear'
p40
sS'Tetraphenyl_linear'
p41
S'linear'
p42
sS'H4ATC_Yaghi_tetrahedral'
p43
S'tetrahedral'
p44
sS'Peropyrene_linear'
p45
S'linear'
p46
sS'CuCN_trigonal_bipyramid'
p47
S'trigonal_bipyramid'
p48
sS'Fluorenone_linear'
p49
S'linear'
p50
sS'Butane_linear'
p51
S'linear'
p52
sS'Cubane_linear'
p53
S'linear'
p54
sS'GaS_cluster_tetrahedral'
p55
S'tetrahedral'
p56
sS'UIO66_Zr_cubic'
p57
S'cubic'
p58
sS'DCDPBN_Yaghi_linear'
p59
S'linear'
p60
sS'Zn_square_paddlewheel'
p61
S'square'
p62
sS'H4DH9PhDC_Yaghi_linear'
p63
S'linear'
p64
sS'Tetracene_linear'
p65
S'linear'
p66
sS'Water_cap'
p67
S'point_cap'
p68
sS'Bipyridine_linear'
p69
S'linear'
p70
sS'Azobenzene_rectangle'
p71
S'rectangle'
p72
sS'CuCNS_square'
p73
S'square'
p74
sS'Methyl_cap'
p75
S'point_cap'
p76
sS'DPMDBDA_linear'
p77
S'linear'
p78
sS'ZnCo4_mfu4_monomer'
p79
S'mfu4'
p80
sS'Amine_cap'
p81
S'point_cap'
p82
sS'Acetylene_linear'
p83
S'linear'
p84
sS'Chrysene_rectangle'
p85
S'rectangle'
p86
sS'Pentacene_rectangle'
p87
S'rectangle'
p88
sS'H4DH11PhDC_Yaghi_linear'
p89
S'linear'
p90
sS'Al_trimeric_prism'
p91
S'tri_prism'
p92
sS'Pyrene_linear'
p93
S'linear'
p94
sS'Biphenyl_linear'
p95
S'linear'
p96
sS'H6BHEHPI_Yaghi_hexagonal'
p97
S'hexagonal'
p98
sS'UIO66_Zr_icosahedral'
p99
S'icosahedral'
p100
sS'Zn_octahedral_paddlewheel'
p101
S'octahedral'
p102
sS'H3BBC_Yaghi_triangle'
p103
S'triangle'
p104
sS'Decapentene'
p105
S'linear'
p106
sS'Pentaphenyl_linear'
p107
S'linear'
p108
sS'Phenazine_linear'
p109
S'linear'
p110
sS'Stilbene_linear'
p111
S'linear'
p112
sS'Diethinylbenzene_linear'
p113
S'linear'
p114
sS'Zn_imidazolate_carboxylated_tetrahedral'
p115
S'tetrahedral'
p116
sS'Zn_mfu4_monomer'
p117
S'mfu4'
p118
sS'Diphenylperylimide_linear'
p119
S'linear'
p120
sS'Zn_mof5_octahedral'
p121
S'octahedral'
p122
sS'Coronene_rectangle'
p123
S'rectangle'
p124
sS'Ni_pyrazole_cubic_cluster'
p125
S'cubic'
p126
sS'Zn_porphyrin_square'
p127
S'square'
p128
s.